; Function Attrs: mustprogress nounwind uwtable
define hidden noundef ptr @_ZN13CallGenerator16for_guarded_callEP7ciKlassPS_S2_(ptr noundef %0, ptr noundef %1, ptr noundef %2) local_unnamed_addr #0 align 2 {
  %4 = tail call align 8 ptr @llvm.threadlocal.address.p0(ptr align 8 @_ZN6Thread12_thr_currentE)
  %5 = load ptr, ptr %4, align 8
  %6 = getelementptr inbounds i8, ptr %5, i64 1808
  %7 = load ptr, ptr %6, align 8
  %8 = getelementptr inbounds i8, ptr %7, i64 128
  %9 = load ptr, ptr %8, align 8
  %10 = getelementptr inbounds i8, ptr %9, i64 296
  %11 = tail call noundef ptr @_ZN8ArenaObjnwEmP5Arena(i64 noundef 48, ptr noundef nonnull %10) #7
  %12 = icmp eq ptr %11, null
  br i1 %12, label %22, label %13

13:                                               ; preds = %3
  %14 = getelementptr inbounds i8, ptr %1, i64 8
  %15 = load ptr, ptr %14, align 8
  %16 = getelementptr inbounds i8, ptr %11, i64 8
  store ptr %15, ptr %16, align 8
  store ptr getelementptr inbounds inrange(-16, 200) (i8, ptr @_ZTV22PredictedCallGenerator, i64 16), ptr %11, align 8
  %17 = getelementptr inbounds i8, ptr %11, i64 16
  store ptr %0, ptr %17, align 8
  %18 = getelementptr inbounds i8, ptr %11, i64 24
  store ptr %1, ptr %18, align 8
  %19 = getelementptr inbounds i8, ptr %11, i64 32
  store ptr %2, ptr %19, align 8
  %20 = getelementptr inbounds i8, ptr %11, i64 40
  store float 0x3FEFFFFDE0000000, ptr %20, align 8
  %21 = getelementptr inbounds i8, ptr %11, i64 44
  store i8 0, ptr %21, align 4
  br label %22

22:                                               ; preds = %13, %3
  ret ptr %11
}